target datalayout = "e-m:e-p270:32:32-p271:32:32-p272:64:64-i64:64-i128:128-f80:128-n8:16:32:64-S128"
target triple = "x86_64-pc-linux-gnu"

%struct.__va_list_tag = type { i32, i32, ptr, ptr }
%struct.ws_log_manifest_t = type { %struct.tm, i64, i64 }
%struct.tm = type { i32, i32, i32, i32, i32, i32, i32, i32, i32, i64, ptr }
%struct.timespec = type { i64, i64 }

; Function Attrs: inlinehint nounwind null_pointer_is_valid sspstrong uwtable
define internal void @get_timestamp(ptr noundef %0) #13 {
  %2 = alloca ptr, align 8
  %3 = alloca i8, align 1
  %4 = alloca i32, align 4
  store ptr %0, ptr %2, align 8
  call void @llvm.lifetime.start.p0(i64 1, ptr %3) #19
  store i8 0, ptr %3, align 1
  %5 = load ptr, ptr %2, align 8
  %6 = call i32 @clock_gettime(i32 noundef 0, ptr noundef %5) #19
  %7 = icmp eq i32 %6, 0
  %8 = zext i1 %7 to i8
  store i8 %8, ptr %3, align 1
  %9 = load i8, ptr %3, align 1, !range !6, !noundef !7
  %10 = trunc i8 %9 to i1
  br i1 %10, label %11, label %12

11:                                               ; preds = %1
  store i32 1, ptr %4, align 4
  br label %18

12:                                               ; preds = %1
  %13 = call i64 @time(ptr noundef null) #19
  %14 = load ptr, ptr %2, align 8
  %15 = getelementptr inbounds nuw %struct.timespec, ptr %14, i32 0, i32 0
  store i64 %13, ptr %15, align 8
  %16 = load ptr, ptr %2, align 8
  %17 = getelementptr inbounds nuw %struct.timespec, ptr %16, i32 0, i32 1
  store i64 -1, ptr %17, align 8
  store i32 0, ptr %4, align 4
  br label %18

18:                                               ; preds = %12, %11
  call void @llvm.lifetime.end.p0(i64 1, ptr %3) #19
  %19 = load i32, ptr %4, align 4
  switch i32 %19, label %21 [
    i32 0, label %20
    i32 1, label %20
  ]

20:                                               ; preds = %18, %18
  ret void

21:                                               ; preds = %18
  unreachable
}

; Function Attrs: inlinehint null_pointer_is_valid sspstrong uwtable
define internal void @fill_manifest(ptr noundef %0) #2 {
  %2 = alloca ptr, align 8
  %3 = alloca %struct.timespec, align 8
  store ptr %0, ptr %2, align 8
  call void @llvm.lifetime.start.p0(i64 16, ptr %3) #19
  call void @get_timestamp(ptr noundef %3)
  %4 = getelementptr inbounds nuw %struct.timespec, ptr %3, i32 0, i32 0
  %5 = load ptr, ptr %2, align 8
  %6 = getelementptr inbounds nuw %struct.ws_log_manifest_t, ptr %5, i32 0, i32 0
  %7 = call ptr @ws_localtime_r(ptr noundef %4, ptr noundef %6)
  %8 = getelementptr inbounds nuw %struct.timespec, ptr %3, i32 0, i32 1
  %9 = load i64, ptr %8, align 8
  %10 = load ptr, ptr %2, align 8
  %11 = getelementptr inbounds nuw %struct.ws_log_manifest_t, ptr %10, i32 0, i32 1
  store i64 %9, ptr %11, align 8
  %12 = call i32 @getpid() #19
  %13 = sext i32 %12 to i64
  %14 = load ptr, ptr %2, align 8
  %15 = getelementptr inbounds nuw %struct.ws_log_manifest_t, ptr %14, i32 0, i32 2
  store i64 %13, ptr %15, align 8
  call void @llvm.lifetime.end.p0(i64 16, ptr %3) #19
  ret void
}

; Function Attrs: null_pointer_is_valid sspstrong uwtable
define void @ws_log_write_always_full(ptr noundef %0, i32 noundef %1, ptr noundef %2, i64 noundef %3, ptr noundef %4, ptr noundef %5, ...) #1 {
  %7 = alloca ptr, align 8
  %8 = alloca i32, align 4
  %9 = alloca ptr, align 8
  %10 = alloca i64, align 8
  %11 = alloca ptr, align 8
  %12 = alloca ptr, align 8
  %13 = alloca %struct.ws_log_manifest_t, align 8
  %14 = alloca [1 x %struct.__va_list_tag], align 16
  store ptr %0, ptr %7, align 8
  store i32 %1, ptr %8, align 4
  store ptr %2, ptr %9, align 8
  store i64 %3, ptr %10, align 8
  store ptr %4, ptr %11, align 8
  store ptr %5, ptr %12, align 8
  call void @llvm.lifetime.start.p0(i64 72, ptr %13) #19
  call void @llvm.lifetime.start.p0(i64 24, ptr %14) #19
  call void @fill_manifest(ptr noundef %13)
  %15 = getelementptr inbounds [1 x %struct.__va_list_tag], ptr %14, i64 0, i64 0
  call void @llvm.va_start.p0(ptr %15)
  %16 = load ptr, ptr %7, align 8
  %17 = load i32, ptr %8, align 4
  %18 = load ptr, ptr %9, align 8
  %19 = load i64, ptr %10, align 8
  %20 = load ptr, ptr %11, align 8
  %21 = load ptr, ptr %12, align 8
  %22 = getelementptr inbounds [1 x %struct.__va_list_tag], ptr %14, i64 0, i64 0
  call void @log_write_dispatch(ptr noundef %16, i32 noundef %17, ptr noundef %18, i64 noundef %19, ptr noundef %20, ptr noundef %13, ptr noundef %21, ptr noundef %22)
  %23 = getelementptr inbounds [1 x %struct.__va_list_tag], ptr %14, i64 0, i64 0
  call void @llvm.va_end.p0(ptr %23)
  call void @llvm.lifetime.end.p0(i64 24, ptr %14) #19
  call void @llvm.lifetime.end.p0(i64 72, ptr %13) #19
  ret void
}