; Function Attrs: null_pointer_is_valid sspstrong uwtable
define void @ws_log_write_always_full(ptr noundef %0, i32 noundef %1, ptr noundef %2, i64 noundef %3, ptr noundef %4, ptr noundef %5, ...) local_unnamed_addr #1 {
  %7 = alloca %struct.timespec, align 8
  %8 = alloca %struct.ws_log_manifest_t, align 8
  %9 = alloca [1 x %struct.__va_list_tag], align 16
  call void @llvm.lifetime.start.p0(i64 72, ptr nonnull %8) #23
  call void @llvm.lifetime.start.p0(i64 24, ptr nonnull %9) #23
  call void @llvm.lifetime.start.p0(i64 16, ptr nonnull %7) #23
  %10 = call i32 @clock_gettime(i32 noundef 0, ptr noundef nonnull %7) #23
  %11 = icmp eq i32 %10, 0
  br i1 %11, label %fill_manifest.exit, label %12

12:                                               ; preds = %6
  %13 = call i64 @time(ptr noundef null) #23
  store i64 %13, ptr %7, align 8
  %14 = getelementptr inbounds nuw i8, ptr %7, i64 8
  store i64 -1, ptr %14, align 8
  br label %fill_manifest.exit

fill_manifest.exit:                               ; preds = %6, %12
  %15 = call ptr @ws_localtime_r(ptr noundef nonnull %7, ptr noundef nonnull %8)
  %16 = getelementptr inbounds nuw i8, ptr %7, i64 8
  %17 = load i64, ptr %16, align 8
  %18 = getelementptr inbounds nuw i8, ptr %8, i64 56
  store i64 %17, ptr %18, align 8
  %19 = call i32 @getpid() #23
  %20 = sext i32 %19 to i64
  %21 = getelementptr inbounds nuw i8, ptr %8, i64 64
  store i64 %20, ptr %21, align 8
  call void @llvm.lifetime.end.p0(i64 16, ptr nonnull %7) #23
  call void @llvm.va_start.p0(ptr nonnull %9)
  call fastcc void @log_write_dispatch(ptr noundef %0, i32 noundef %1, ptr noundef %2, i64 noundef %3, ptr noundef %4, ptr noundef nonnull %8, ptr noundef %5, ptr noundef nonnull %9)
  call void @llvm.va_end.p0(ptr nonnull %9)
  call void @llvm.lifetime.end.p0(i64 24, ptr nonnull %9) #23
  call void @llvm.lifetime.end.p0(i64 72, ptr nonnull %8) #23
  ret void
}